target datalayout = "e-m:e-p270:32:32-p271:32:32-p272:64:64-i64:64-i128:128-f80:128-n8:16:32:64-S128"
target triple = "x86_64-pc-linux-gnu"

%struct.expert_field = type { i32, i32 }

@ei_length_clamped = internal global %struct.expert_field zeroinitializer, align 4

; Function Attrs: null_pointer_is_valid sspstrong uwtable
define internal i32 @get_clamped_length(i64 noundef %0, ptr noundef %1, ptr noundef %2) #0 {
  %4 = alloca i64, align 8
  %5 = alloca ptr, align 8
  %6 = alloca ptr, align 8
  %7 = alloca i32, align 4
  store i64 %0, ptr %4, align 8
  store ptr %1, ptr %5, align 8
  store ptr %2, ptr %6, align 8
  call void @llvm.lifetime.start.p0(i64 4, ptr %7) #11
  %8 = load i64, ptr %4, align 8
  %9 = icmp ugt i64 %8, 2147483647
  br i1 %9, label %10, label %21

10:                                               ; preds = %3
  store i32 2147483647, ptr %7, align 4
  %11 = load ptr, ptr %5, align 8
  %12 = icmp ne ptr %11, null
  br i1 %12, label %13, label %20

13:                                               ; preds = %10
  %14 = load ptr, ptr %6, align 8
  %15 = icmp ne ptr %14, null
  br i1 %15, label %16, label %20

16:                                               ; preds = %13
  %17 = load ptr, ptr %5, align 8
  %18 = load ptr, ptr %6, align 8
  %19 = call ptr @expert_add_info(ptr noundef %17, ptr noundef %18, ptr noundef @ei_length_clamped)
  br label %20

20:                                               ; preds = %16, %13, %10
  br label %24

21:                                               ; preds = %3
  %22 = load i64, ptr %4, align 8
  %23 = trunc i64 %22 to i32
  store i32 %23, ptr %7, align 4
  br label %24

24:                                               ; preds = %21, %20
  %25 = load i32, ptr %7, align 4
  call void @llvm.lifetime.end.p0(i64 4, ptr %7) #11
  ret i32 %25
}

; Function Attrs: null_pointer_is_valid sspstrong uwtable
define internal i32 @get_v4_msg_len(ptr noundef %0, ptr noundef %1, i32 noundef %2, ptr noundef %3) #0 {
  %5 = alloca i32, align 4
  %6 = alloca ptr, align 8
  %7 = alloca ptr, align 8
  %8 = alloca i32, align 4
  %9 = alloca ptr, align 8
  %10 = alloca i32, align 4
  %11 = alloca i8, align 1
  %12 = alloca i32, align 4
  %13 = alloca i32, align 4
  %14 = alloca i16, align 2
  %15 = alloca i32, align 4
  %16 = alloca i32, align 4
  %17 = alloca i8, align 1
  %18 = alloca i32, align 4
  %19 = alloca i64, align 8
  %20 = alloca i32, align 4
  store ptr %0, ptr %6, align 8
  store ptr %1, ptr %7, align 8
  store i32 %2, ptr %8, align 4
  store ptr %3, ptr %9, align 8
  call void @llvm.lifetime.start.p0(i64 4, ptr %10) #11
  %21 = load i32, ptr %8, align 4
  store i32 %21, ptr %10, align 4
  call void @llvm.lifetime.start.p0(i64 1, ptr %11) #11
  %22 = load ptr, ptr %7, align 8
  %23 = load i32, ptr %8, align 4
  %24 = call zeroext i8 @tvb_get_uint8(ptr noundef %22, i32 noundef %23)
  store i8 %24, ptr %11, align 1
  %25 = load i32, ptr %8, align 4
  %26 = add i32 %25, 1
  store i32 %26, ptr %8, align 4
  %27 = load i8, ptr %11, align 1
  %28 = zext i8 %27 to i32
  switch i32 %28, label %134 [
    i32 7, label %29
    i32 5, label %66
    i32 1, label %69
    i32 2, label %124
    i32 3, label %127
    i32 4, label %130
    i32 6, label %131
  ]

29:                                               ; preds = %4
  call void @llvm.lifetime.start.p0(i64 4, ptr %12) #11
  %30 = load ptr, ptr %7, align 8
  %31 = call i32 @tvb_reported_length(ptr noundef %30)
  store i32 %31, ptr %12, align 4
  %32 = load i32, ptr %8, align 4
  %33 = add i32 %32, 18
  store i32 %33, ptr %8, align 4
  %34 = load i32, ptr %12, align 4
  %35 = load i32, ptr %8, align 4
  %36 = add i32 %35, 2
  %37 = icmp slt i32 %34, %36
  br i1 %37, label %38, label %39

38:                                               ; preds = %29
  store i32 0, ptr %5, align 4
  store i32 1, ptr %13, align 4
  br label %64

39:                                               ; preds = %29
  call void @llvm.lifetime.start.p0(i64 2, ptr %14) #11
  %40 = load ptr, ptr %7, align 8
  %41 = load i32, ptr %8, align 4
  %42 = call zeroext i16 @tvb_get_uint16(ptr noundef %40, i32 noundef %41, i32 noundef 0)
  store i16 %42, ptr %14, align 2
  %43 = load i32, ptr %8, align 4
  %44 = add i32 %43, 2
  store i32 %44, ptr %8, align 4
  %45 = load i16, ptr %14, align 2
  %46 = zext i16 %45 to i32
  %47 = load i32, ptr %8, align 4
  %48 = add i32 %47, %46
  store i32 %48, ptr %8, align 4
  %49 = load i32, ptr %12, align 4
  %50 = load i32, ptr %8, align 4
  %51 = add i32 %50, 4
  %52 = icmp slt i32 %49, %51
  br i1 %52, label %53, label %54

53:                                               ; preds = %39
  store i32 0, ptr %5, align 4
  store i32 1, ptr %13, align 4
  br label %63

54:                                               ; preds = %39
  call void @llvm.lifetime.start.p0(i64 4, ptr %15) #11
  %55 = load ptr, ptr %7, align 8
  %56 = load i32, ptr %8, align 4
  %57 = call i32 @tvb_get_uint32(ptr noundef %55, i32 noundef %56, i32 noundef 0)
  store i32 %57, ptr %15, align 4
  %58 = load i32, ptr %8, align 4
  %59 = add i32 %58, 4
  store i32 %59, ptr %8, align 4
  %60 = load i32, ptr %15, align 4
  %61 = load i32, ptr %8, align 4
  %62 = add i32 %61, %60
  store i32 %62, ptr %8, align 4
  store i32 2, ptr %13, align 4
  call void @llvm.lifetime.end.p0(i64 4, ptr %15) #11
  br label %63

63:                                               ; preds = %54, %53
  call void @llvm.lifetime.end.p0(i64 2, ptr %14) #11
  br label %64

64:                                               ; preds = %63, %38
  call void @llvm.lifetime.end.p0(i64 4, ptr %12) #11
  %65 = load i32, ptr %13, align 4
  switch i32 %65, label %139 [
    i32 2, label %135
  ]

66:                                               ; preds = %4
  %67 = load i32, ptr %8, align 4
  %68 = add i32 %67, 2
  store i32 %68, ptr %8, align 4
  br label %135

69:                                               ; preds = %4
  call void @llvm.lifetime.start.p0(i64 4, ptr %16) #11
  %70 = load ptr, ptr %7, align 8
  %71 = call i32 @tvb_reported_length(ptr noundef %70)
  store i32 %71, ptr %16, align 4
  %72 = load i32, ptr %16, align 4
  %73 = load i32, ptr %8, align 4
  %74 = add i32 %73, 1
  %75 = icmp slt i32 %72, %74
  br i1 %75, label %76, label %77

76:                                               ; preds = %69
  store i32 0, ptr %5, align 4
  store i32 1, ptr %13, align 4
  br label %122

77:                                               ; preds = %69
  call void @llvm.lifetime.start.p0(i64 1, ptr %17) #11
  %78 = load ptr, ptr %7, align 8
  %79 = load i32, ptr %8, align 4
  %80 = call zeroext i8 @tvb_get_uint8(ptr noundef %78, i32 noundef %79)
  store i8 %80, ptr %17, align 1
  %81 = load i32, ptr %8, align 4
  %82 = add i32 %81, 1
  store i32 %82, ptr %8, align 4
  %83 = load i32, ptr %8, align 4
  %84 = add i32 %83, 8
  store i32 %84, ptr %8, align 4
  %85 = load i8, ptr %17, align 1
  %86 = zext i8 %85 to i32
  %87 = and i32 %86, 2
  %88 = icmp ne i32 %87, 0
  br i1 %88, label %89, label %104

89:                                               ; preds = %77
  %90 = load i32, ptr %16, align 4
  %91 = load i32, ptr %8, align 4
  %92 = add i32 %91, 4
  %93 = icmp slt i32 %90, %92
  br i1 %93, label %94, label %95

94:                                               ; preds = %89
  store i32 0, ptr %5, align 4
  store i32 1, ptr %13, align 4
  br label %121

95:                                               ; preds = %89
  call void @llvm.lifetime.start.p0(i64 4, ptr %18) #11
  %96 = load ptr, ptr %7, align 8
  %97 = load i32, ptr %8, align 4
  %98 = call i32 @tvb_get_uint32(ptr noundef %96, i32 noundef %97, i32 noundef 0)
  store i32 %98, ptr %18, align 4
  %99 = load i32, ptr %8, align 4
  %100 = add i32 %99, 4
  store i32 %100, ptr %8, align 4
  %101 = load i32, ptr %18, align 4
  %102 = load i32, ptr %8, align 4
  %103 = add i32 %102, %101
  store i32 %103, ptr %8, align 4
  call void @llvm.lifetime.end.p0(i64 4, ptr %18) #11
  br label %104

104:                                              ; preds = %95, %77
  %105 = load i32, ptr %16, align 4
  %106 = load i32, ptr %8, align 4
  %107 = add i32 %106, 8
  %108 = icmp slt i32 %105, %107
  br i1 %108, label %109, label %110

109:                                              ; preds = %104
  store i32 0, ptr %5, align 4
  store i32 1, ptr %13, align 4
  br label %121

110:                                              ; preds = %104
  call void @llvm.lifetime.start.p0(i64 8, ptr %19) #11
  %111 = load ptr, ptr %7, align 8
  %112 = load i32, ptr %8, align 4
  %113 = call i64 @tvb_get_uint64(ptr noundef %111, i32 noundef %112, i32 noundef 0)
  store i64 %113, ptr %19, align 8
  %114 = load i32, ptr %8, align 4
  %115 = add i32 %114, 8
  store i32 %115, ptr %8, align 4
  call void @llvm.lifetime.start.p0(i64 4, ptr %20) #11
  %116 = load i64, ptr %19, align 8
  %117 = call i32 @get_clamped_length(i64 noundef %116, ptr noundef null, ptr noundef null)
  store i32 %117, ptr %20, align 4
  %118 = load i32, ptr %20, align 4
  %119 = load i32, ptr %8, align 4
  %120 = add i32 %119, %118
  store i32 %120, ptr %8, align 4
  store i32 2, ptr %13, align 4
  call void @llvm.lifetime.end.p0(i64 4, ptr %20) #11
  call void @llvm.lifetime.end.p0(i64 8, ptr %19) #11
  br label %121

121:                                              ; preds = %110, %109, %94
  call void @llvm.lifetime.end.p0(i64 1, ptr %17) #11
  br label %122

122:                                              ; preds = %121, %76
  call void @llvm.lifetime.end.p0(i64 4, ptr %16) #11
  %123 = load i32, ptr %13, align 4
  switch i32 %123, label %139 [
    i32 2, label %135
  ]

124:                                              ; preds = %4
  %125 = load i32, ptr %8, align 4
  %126 = add i32 %125, 17
  store i32 %126, ptr %8, align 4
  br label %135

127:                                              ; preds = %4
  %128 = load i32, ptr %8, align 4
  %129 = add i32 %128, 9
  store i32 %129, ptr %8, align 4
  br label %135

130:                                              ; preds = %4
  br label %135

131:                                              ; preds = %4
  %132 = load i32, ptr %8, align 4
  %133 = add i32 %132, 2
  store i32 %133, ptr %8, align 4
  br label %135

134:                                              ; preds = %4
  store i32 0, ptr %5, align 4
  store i32 1, ptr %13, align 4
  br label %139

135:                                              ; preds = %131, %130, %127, %124, %122, %66, %64
  %136 = load i32, ptr %8, align 4
  %137 = load i32, ptr %10, align 4
  %138 = sub i32 %136, %137
  store i32 %138, ptr %5, align 4
  store i32 1, ptr %13, align 4
  br label %139

139:                                              ; preds = %135, %134, %122, %64
  call void @llvm.lifetime.end.p0(i64 1, ptr %11) #11
  call void @llvm.lifetime.end.p0(i64 4, ptr %10) #11
  %140 = load i32, ptr %5, align 4
  ret i32 %140
}