; Function Attrs: null_pointer_is_valid sspstrong uwtable
define internal fastcc i32 @get_v4_msg_len(ptr noundef %0, i32 noundef %1) unnamed_addr #0 {
  %3 = tail call zeroext i8 @tvb_get_uint8(ptr noundef %0, i32 noundef %1)
  %4 = add i32 %1, 1
  switch i8 %3, label %.thread [
    i8 7, label %5
    i8 5, label %18
    i8 1, label %20
    i8 2, label %40
    i8 3, label %42
    i8 4, label %46
    i8 6, label %44
  ]

5:                                                ; preds = %2
  %6 = tail call i32 @tvb_reported_length(ptr noundef %0)
  %7 = add i32 %1, 21
  %8 = icmp slt i32 %6, %7
  br i1 %8, label %.thread, label %9

9:                                                ; preds = %5
  %10 = add i32 %1, 19
  %11 = tail call zeroext i16 @tvb_get_uint16(ptr noundef %0, i32 noundef %10, i32 noundef 0)
  %12 = zext i16 %11 to i32
  %13 = add i32 %7, %12
  %14 = add i32 %13, 4
  %.not8 = icmp slt i32 %6, %14
  br i1 %.not8, label %.thread, label %15

15:                                               ; preds = %9
  %16 = tail call i32 @tvb_get_uint32(ptr noundef %0, i32 noundef %13, i32 noundef 0)
  %17 = add i32 %16, %14
  br label %46

18:                                               ; preds = %2
  %19 = add i32 %1, 3
  br label %46

20:                                               ; preds = %2
  %21 = tail call i32 @tvb_reported_length(ptr noundef %0)
  %22 = add i32 %1, 2
  %23 = icmp slt i32 %21, %22
  br i1 %23, label %.thread, label %24

24:                                               ; preds = %20
  %25 = tail call zeroext i8 @tvb_get_uint8(ptr noundef %0, i32 noundef %4)
  %26 = add i32 %1, 10
  %27 = and i8 %25, 2
  %.not = icmp eq i8 %27, 0
  br i1 %.not, label %34, label %28

28:                                               ; preds = %24
  %29 = add i32 %1, 14
  %30 = icmp slt i32 %21, %29
  br i1 %30, label %.thread, label %31

31:                                               ; preds = %28
  %32 = tail call i32 @tvb_get_uint32(ptr noundef %0, i32 noundef %26, i32 noundef 0)
  %33 = add i32 %32, %29
  br label %34

34:                                               ; preds = %31, %24
  %.457 = phi i32 [ %33, %31 ], [ %26, %24 ]
  %35 = add i32 %.457, 8
  %36 = icmp slt i32 %21, %35
  br i1 %36, label %.thread, label %37

37:                                               ; preds = %34
  %38 = tail call i64 @tvb_get_uint64(ptr noundef %0, i32 noundef %.457, i32 noundef 0)
  %spec.select7 = tail call i64 @llvm.umin.i64(i64 %38, i64 2147483647)
  %spec.select = trunc nuw nsw i64 %spec.select7 to i32
  %39 = add i32 %35, %spec.select
  br label %46

40:                                               ; preds = %2
  %41 = add i32 %1, 18
  br label %46

42:                                               ; preds = %2
  %43 = add i32 %1, 10
  br label %46

44:                                               ; preds = %2
  %45 = add i32 %1, 3
  br label %46

46:                                               ; preds = %37, %15, %2, %44, %42, %40, %18
  %.255 = phi i32 [ %45, %44 ], [ %4, %2 ], [ %43, %42 ], [ %41, %40 ], [ %39, %37 ], [ %19, %18 ], [ %17, %15 ]
  %47 = sub i32 %.255, %1
  br label %.thread

.thread:                                          ; preds = %34, %28, %20, %9, %5, %2, %46
  %.2 = phi i32 [ %47, %46 ], [ 0, %2 ], [ 0, %5 ], [ 0, %9 ], [ 0, %20 ], [ 0, %28 ], [ 0, %34 ]
  ret i32 %.2
}